target datalayout = "e-m:e-p270:32:32-p271:32:32-p272:64:64-i64:64-i128:128-f80:128-n8:16:32:64-S128"
target triple = "x86_64-pc-linux-gnu"

%class.ConvexVolumeTool = type { %struct.SampleTool, ptr, i32, float, float, float, [36 x float], i32, [12 x i32], i32 }
%struct.SampleTool = type { ptr }

@.str = private unnamed_addr constant [13 x i8] c"Shape Height\00", align 1
@.str.1 = private unnamed_addr constant [14 x i8] c"Shape Descent\00", align 1
@.str.2 = private unnamed_addr constant [12 x i8] c"Poly Offset\00", align 1
@.str.3 = private unnamed_addr constant [10 x i8] c"Area Type\00", align 1
@.str.4 = private unnamed_addr constant [7 x i8] c"Ground\00", align 1
@.str.5 = private unnamed_addr constant [6 x i8] c"Water\00", align 1
@.str.6 = private unnamed_addr constant [5 x i8] c"Road\00", align 1
@.str.7 = private unnamed_addr constant [5 x i8] c"Door\00", align 1
@.str.8 = private unnamed_addr constant [6 x i8] c"Grass\00", align 1
@.str.9 = private unnamed_addr constant [5 x i8] c"Jump\00", align 1
@.str.10 = private unnamed_addr constant [12 x i8] c"Clear Shape\00", align 1

; Function Attrs: mustprogress uwtable
define dso_local void @_ZN16ConvexVolumeTool10handleMenuEv(ptr noundef nonnull align 8 dereferenceable(232) %0) unnamed_addr #1 align 2 {
  %2 = alloca ptr, align 8
  store ptr %0, ptr %2, align 8
  %3 = load ptr, ptr %2, align 8
  %4 = getelementptr inbounds %class.ConvexVolumeTool, ptr %3, i32 0, i32 4
  %5 = call noundef zeroext i1 @_Z11imguiSliderPKcPffffb(ptr noundef @.str, ptr noundef %4, float noundef 0x3FB99999A0000000, float noundef 2.000000e+01, float noundef 0x3FB99999A0000000, i1 noundef zeroext true)
  %6 = getelementptr inbounds %class.ConvexVolumeTool, ptr %3, i32 0, i32 5
  %7 = call noundef zeroext i1 @_Z11imguiSliderPKcPffffb(ptr noundef @.str.1, ptr noundef %6, float noundef 0x3FB99999A0000000, float noundef 2.000000e+01, float noundef 0x3FB99999A0000000, i1 noundef zeroext true)
  %8 = getelementptr inbounds %class.ConvexVolumeTool, ptr %3, i32 0, i32 3
  %9 = call noundef zeroext i1 @_Z11imguiSliderPKcPffffb(ptr noundef @.str.2, ptr noundef %8, float noundef 0.000000e+00, float noundef 1.000000e+01, float noundef 0x3FB99999A0000000, i1 noundef zeroext true)
  call void @_Z14imguiSeparatorv()
  call void @_Z10imguiLabelPKc(ptr noundef @.str.3)
  call void @_Z11imguiIndentv()
  %10 = getelementptr inbounds %class.ConvexVolumeTool, ptr %3, i32 0, i32 2
  %11 = load i32, ptr %10, align 8
  %12 = icmp eq i32 %11, 0
  %13 = call noundef zeroext i1 @_Z10imguiCheckPKcbb(ptr noundef @.str.4, i1 noundef zeroext %12, i1 noundef zeroext true)
  br i1 %13, label %14, label %16

14:                                               ; preds = %1
  %15 = getelementptr inbounds %class.ConvexVolumeTool, ptr %3, i32 0, i32 2
  store i32 0, ptr %15, align 8
  br label %16

16:                                               ; preds = %14, %1
  %17 = getelementptr inbounds %class.ConvexVolumeTool, ptr %3, i32 0, i32 2
  %18 = load i32, ptr %17, align 8
  %19 = icmp eq i32 %18, 1
  %20 = call noundef zeroext i1 @_Z10imguiCheckPKcbb(ptr noundef @.str.5, i1 noundef zeroext %19, i1 noundef zeroext true)
  br i1 %20, label %21, label %23

21:                                               ; preds = %16
  %22 = getelementptr inbounds %class.ConvexVolumeTool, ptr %3, i32 0, i32 2
  store i32 1, ptr %22, align 8
  br label %23

23:                                               ; preds = %21, %16
  %24 = getelementptr inbounds %class.ConvexVolumeTool, ptr %3, i32 0, i32 2
  %25 = load i32, ptr %24, align 8
  %26 = icmp eq i32 %25, 2
  %27 = call noundef zeroext i1 @_Z10imguiCheckPKcbb(ptr noundef @.str.6, i1 noundef zeroext %26, i1 noundef zeroext true)
  br i1 %27, label %28, label %30

28:                                               ; preds = %23
  %29 = getelementptr inbounds %class.ConvexVolumeTool, ptr %3, i32 0, i32 2
  store i32 2, ptr %29, align 8
  br label %30

30:                                               ; preds = %28, %23
  %31 = getelementptr inbounds %class.ConvexVolumeTool, ptr %3, i32 0, i32 2
  %32 = load i32, ptr %31, align 8
  %33 = icmp eq i32 %32, 3
  %34 = call noundef zeroext i1 @_Z10imguiCheckPKcbb(ptr noundef @.str.7, i1 noundef zeroext %33, i1 noundef zeroext true)
  br i1 %34, label %35, label %37

35:                                               ; preds = %30
  %36 = getelementptr inbounds %class.ConvexVolumeTool, ptr %3, i32 0, i32 2
  store i32 3, ptr %36, align 8
  br label %37

37:                                               ; preds = %35, %30
  %38 = getelementptr inbounds %class.ConvexVolumeTool, ptr %3, i32 0, i32 2
  %39 = load i32, ptr %38, align 8
  %40 = icmp eq i32 %39, 4
  %41 = call noundef zeroext i1 @_Z10imguiCheckPKcbb(ptr noundef @.str.8, i1 noundef zeroext %40, i1 noundef zeroext true)
  br i1 %41, label %42, label %44

42:                                               ; preds = %37
  %43 = getelementptr inbounds %class.ConvexVolumeTool, ptr %3, i32 0, i32 2
  store i32 4, ptr %43, align 8
  br label %44

44:                                               ; preds = %42, %37
  %45 = getelementptr inbounds %class.ConvexVolumeTool, ptr %3, i32 0, i32 2
  %46 = load i32, ptr %45, align 8
  %47 = icmp eq i32 %46, 5
  %48 = call noundef zeroext i1 @_Z10imguiCheckPKcbb(ptr noundef @.str.9, i1 noundef zeroext %47, i1 noundef zeroext true)
  br i1 %48, label %49, label %51

49:                                               ; preds = %44
  %50 = getelementptr inbounds %class.ConvexVolumeTool, ptr %3, i32 0, i32 2
  store i32 5, ptr %50, align 8
  br label %51

51:                                               ; preds = %49, %44
  call void @_Z13imguiUnindentv()
  call void @_Z14imguiSeparatorv()
  %52 = call noundef zeroext i1 @_Z11imguiButtonPKcb(ptr noundef @.str.10, i1 noundef zeroext true)
  br i1 %52, label %53, label %56

53:                                               ; preds = %51
  %54 = getelementptr inbounds %class.ConvexVolumeTool, ptr %3, i32 0, i32 7
  store i32 0, ptr %54, align 8
  %55 = getelementptr inbounds %class.ConvexVolumeTool, ptr %3, i32 0, i32 9
  store i32 0, ptr %55, align 4
  br label %56

56:                                               ; preds = %53, %51
  ret void
}