; Function Attrs: mustprogress uwtable
define dso_local void @_ZN16ConvexVolumeTool10handleMenuEv(ptr noundef nonnull align 8 dereferenceable(232) %0) unnamed_addr #1 align 2 {
  %2 = getelementptr inbounds i8, ptr %0, i64 24
  %3 = tail call noundef zeroext i1 @_Z11imguiSliderPKcPffffb(ptr noundef nonnull @.str, ptr noundef nonnull %2, float noundef 0x3FB99999A0000000, float noundef 2.000000e+01, float noundef 0x3FB99999A0000000, i1 noundef zeroext true)
  %4 = getelementptr inbounds i8, ptr %0, i64 28
  %5 = tail call noundef zeroext i1 @_Z11imguiSliderPKcPffffb(ptr noundef nonnull @.str.1, ptr noundef nonnull %4, float noundef 0x3FB99999A0000000, float noundef 2.000000e+01, float noundef 0x3FB99999A0000000, i1 noundef zeroext true)
  %6 = getelementptr inbounds i8, ptr %0, i64 20
  %7 = tail call noundef zeroext i1 @_Z11imguiSliderPKcPffffb(ptr noundef nonnull @.str.2, ptr noundef nonnull %6, float noundef 0.000000e+00, float noundef 1.000000e+01, float noundef 0x3FB99999A0000000, i1 noundef zeroext true)
  tail call void @_Z14imguiSeparatorv()
  tail call void @_Z10imguiLabelPKc(ptr noundef nonnull @.str.3)
  tail call void @_Z11imguiIndentv()
  %8 = getelementptr inbounds i8, ptr %0, i64 16
  %9 = load i32, ptr %8, align 8
  %10 = icmp eq i32 %9, 0
  %11 = tail call noundef zeroext i1 @_Z10imguiCheckPKcbb(ptr noundef nonnull @.str.4, i1 noundef zeroext %10, i1 noundef zeroext true)
  br i1 %11, label %13, label %._crit_edge

._crit_edge:                                      ; preds = %1
  %.pre = load i32, ptr %8, align 8
  %12 = icmp eq i32 %.pre, 1
  br label %14

13:                                               ; preds = %1
  store i32 0, ptr %8, align 8
  br label %14

14:                                               ; preds = %._crit_edge, %13
  %15 = phi i1 [ %12, %._crit_edge ], [ false, %13 ]
  %16 = tail call noundef zeroext i1 @_Z10imguiCheckPKcbb(ptr noundef nonnull @.str.5, i1 noundef zeroext %15, i1 noundef zeroext true)
  br i1 %16, label %18, label %._crit_edge1

._crit_edge1:                                     ; preds = %14
  %.pre2 = load i32, ptr %8, align 8
  %17 = icmp eq i32 %.pre2, 2
  br label %19

18:                                               ; preds = %14
  store i32 1, ptr %8, align 8
  br label %19

19:                                               ; preds = %._crit_edge1, %18
  %20 = phi i1 [ %17, %._crit_edge1 ], [ false, %18 ]
  %21 = tail call noundef zeroext i1 @_Z10imguiCheckPKcbb(ptr noundef nonnull @.str.6, i1 noundef zeroext %20, i1 noundef zeroext true)
  br i1 %21, label %23, label %._crit_edge3

._crit_edge3:                                     ; preds = %19
  %.pre4 = load i32, ptr %8, align 8
  %22 = icmp eq i32 %.pre4, 3
  br label %24

23:                                               ; preds = %19
  store i32 2, ptr %8, align 8
  br label %24

24:                                               ; preds = %._crit_edge3, %23
  %25 = phi i1 [ %22, %._crit_edge3 ], [ false, %23 ]
  %26 = tail call noundef zeroext i1 @_Z10imguiCheckPKcbb(ptr noundef nonnull @.str.7, i1 noundef zeroext %25, i1 noundef zeroext true)
  br i1 %26, label %28, label %._crit_edge5

._crit_edge5:                                     ; preds = %24
  %.pre6 = load i32, ptr %8, align 8
  %27 = icmp eq i32 %.pre6, 4
  br label %29

28:                                               ; preds = %24
  store i32 3, ptr %8, align 8
  br label %29

29:                                               ; preds = %._crit_edge5, %28
  %30 = phi i1 [ %27, %._crit_edge5 ], [ false, %28 ]
  %31 = tail call noundef zeroext i1 @_Z10imguiCheckPKcbb(ptr noundef nonnull @.str.8, i1 noundef zeroext %30, i1 noundef zeroext true)
  br i1 %31, label %33, label %._crit_edge7

._crit_edge7:                                     ; preds = %29
  %.pre8 = load i32, ptr %8, align 8
  %32 = icmp eq i32 %.pre8, 5
  br label %34

33:                                               ; preds = %29
  store i32 4, ptr %8, align 8
  br label %34

34:                                               ; preds = %._crit_edge7, %33
  %35 = phi i1 [ %32, %._crit_edge7 ], [ false, %33 ]
  %36 = tail call noundef zeroext i1 @_Z10imguiCheckPKcbb(ptr noundef nonnull @.str.9, i1 noundef zeroext %35, i1 noundef zeroext true)
  br i1 %36, label %37, label %38

37:                                               ; preds = %34
  store i32 5, ptr %8, align 8
  br label %38

38:                                               ; preds = %37, %34
  tail call void @_Z13imguiUnindentv()
  tail call void @_Z14imguiSeparatorv()
  %39 = tail call noundef zeroext i1 @_Z11imguiButtonPKcb(ptr noundef nonnull @.str.10, i1 noundef zeroext true)
  br i1 %39, label %40, label %43

40:                                               ; preds = %38
  %41 = getelementptr inbounds i8, ptr %0, i64 176
  store i32 0, ptr %41, align 8
  %42 = getelementptr inbounds i8, ptr %0, i64 228
  store i32 0, ptr %42, align 4
  br label %43

43:                                               ; preds = %40, %38
  ret void
}